(dp0
I0
(dp1
S'salary'
p2
F55.842341730314466
sS'to_messages'
p3
F807.0
sS'total_payments'
p4
F1061827.0
sS'fraction_from_poi'
p5
F4.708798017348203
sS'bonus'
p6
F600000.0
sS'poi_ratio'
p7
F4.6650717703349285
sS'total_stock_value'
p8
F585062.0
sS'expenses'
p9
F94299.0
sS'fraction_to_poi'
p10
F3.4482758620689653
sS'exercised_stock_options'
p11
F0.0
sS'from_messages'
p12
F29.0
sS'other'
p13
F1740.0
sS'from_this_person_to_poi'
p14
F1.0
sS'poi'
p15
I00
sS'shared_receipt_with_poi'
p16
F702.0
sS'restricted_stock'
p17
F585062.0
sS'from_poi_to_this_person'
p18
F38.0
ssI1
(dp19
g2
F40.77662788514236
sg3
F0.0
sg4
F5634343.0
sg5
F0.0
sg6
F1200000.0
sg7
F0.0
sg8
F10623258.0
sg9
F11200.0
sg10
F0.0
sg11
F6680544.0
sg12
F0.0
sg13
F2660303.0
sg14
F0.0
sg15
I00
sg16
F0.0
sg17
F3942714.0
sg18
F0.0
ssI2
(dp20
g2
F26.096388448286124
sg3
F0.0
sg4
F211725.0
sg5
F0.0
sg6
F350000.0
sg7
F0.0
sg8
F6678735.0
sg9
F78552.0
sg10
F0.0
sg11
F4890344.0
sg12
F0.0
sg13
F12961.0
sg14
F0.0
sg15
I00
sg16
F0.0
sg17
F1788391.0
sg18
F0.0
ssI3
(dp21
g2
F0.0
sg3
F764.0
sg4
F0.0
sg5
F1.3089005235602094
sg6
F0.0
sg7
F1.2886597938144329
sg8
F1038185.0
sg9
F0.0
sg10
F0.0
sg11
F651850.0
sg12
F12.0
sg13
F0.0
sg14
F0.0
sg15
I00
sg16
F58.0
sg17
F386335.0
sg18
F10.0
ssI4
(dp22
g2
F37.14187137520476
sg3
F1045.0
sg4
F288682.0
sg5
F3.062200956937799
sg6
F1500000.0
sg7
F4.921077065923862
sg8
F6391065.0
sg9
F34039.0
sg10
F65.625
sg11
F5538001.0
sg12
F32.0
sg13
F11350.0
sg14
F21.0
sg15
I01
sg16
F1035.0
sg17
F853064.0
sg18
F32.0
ssI5
(dp23
g2
F40.775253916954306
sg3
F0.0
sg4
F628522.0
sg5
F0.0
sg6
F325000.0
sg7
F0.0
sg8
F208510.0
sg9
F35018.0
sg10
F0.0
sg11
F0.0
sg12
F0.0
sg13
F1411.0
sg14
F0.0
sg15
I00
sg16
F0.0
sg17
F208510.0
sg18
F0.0
ssI6
(dp24
g2
F0.0
sg3
F232.0
sg4
F1848227.0
sg5
F0.0
sg6
F0.0
sg7
F0.0
sg8
F955873.0
sg9
F0.0
sg10
F0.0
sg11
F493489.0
sg12
F28.0
sg13
F0.0
sg14
F0.0
sg15
I00
sg16
F22.0
sg17
F462384.0
sg18
F0.0
ssI7
(dp25
g2
F56.55375192546375
sg3
F2355.0
sg4
F4099771.0
sg5
F2.4628450106157116
sg6
F2600000.0
sg7
F3.495630461922597
sg8
F1662855.0
sg9
F137108.0
sg10
F54.166666666666664
sg11
F1104054.0
sg12
F48.0
sg13
F297353.0
sg14
F26.0
sg15
I00
sg16
F2228.0
sg17
F558801.0
sg18
F58.0
ssI8
(dp26
g2
F0.0
sg3
F2350.0
sg4
F3131860.0
sg5
F1.872340425531915
sg6
F0.0
sg7
F1.7236342389716621
sg8
F7256648.0
sg9
F0.0
sg10
F1.3979496738117427
sg11
F5210569.0
sg12
F1073.0
sg13
F0.0
sg14
F15.0
sg15
I00
sg16
F1074.0
sg17
F2046079.0
sg18
F44.0
ssI9
(dp27
g2
F30.08852935025044
sg3
F1238.0
sg4
F1737629.0
sg5
F4.92730210016155
sg6
F400000.0
sg7
F7.465753424657534
sg8
F880290.0
sg9
F43057.0
sg10
F21.62162162162162
sg11
F880290.0
sg12
F222.0
sg13
F778.0
sg14
F48.0
sg15
I00
sg16
F742.0
sg17
F409554.0
sg18
F61.0
ssI10
(dp28
g2
F19.95673526838942
sg3
F128.0
sg4
F3100224.0
sg5
F7.8125
sg6
F0.0
sg7
F18.620689655172416
sg8
F2282768.0
sg9
F4994.0
sg10
F100.0
sg11
F2282768.0
sg12
F17.0
sg13
F0.0
sg14
F17.0
sg15
I00
sg16
F119.0
sg17
F0.0
sg18
F10.0
ssI11
(dp29
g2
F44.05690060256138
sg3
F111.0
sg4
F1130461.0
sg5
F10.81081081081081
sg6
F788750.0
sg7
F9.30232558139535
sg8
F0.0
sg9
F53122.0
sg10
F0.0
sg11
F0.0
sg12
F18.0
sg13
F0.0
sg14
F0.0
sg15
I00
sg16
F41.0
sg17
F0.0
sg18
F12.0
ssI12
(dp30
g2
F37.94381080763377
sg3
F2475.0
sg4
F2014835.0
sg5
F1.0101010101010102
sg6
F850000.0
sg7
F1.0847730012053034
sg8
F954354.0
sg9
F84208.0
sg10
F14.285714285714285
sg11
F765313.0
sg12
F14.0
sg13
F272.0
sg14
F2.0
sg15
I00
sg16
F2326.0
sg17
F189041.0
sg18
F25.0
ssI13
(dp31
g2
F39.30861920776994
sg3
F2647.0
sg4
F1545059.0
sg5
F1.3978088401964488
sg6
F700000.0
sg7
F1.86219739292365
sg8
F698920.0
sg9
F0.0
sg10
F34.21052631578947
sg11
F0.0
sg12
F38.0
sg13
F111122.0
sg14
F13.0
sg15
I00
sg16
F2565.0
sg17
F698920.0
sg18
F37.0
ssI14
(dp32
g2
F0.0
sg3
F169.0
sg4
F966522.0
sg5
F0.0
sg6
F0.0
sg7
F0.0
sg8
F2218275.0
sg9
F0.0
sg10
F0.0
sg11
F2218275.0
sg12
F12.0
sg13
F0.0
sg14
F0.0
sg15
I00
sg16
F23.0
sg17
F0.0
sg18
F0.0
ssI15
(dp33
g2
F0.0
sg3
F0.0
sg4
F0.0
sg5
F0.0
sg6
F0.0
sg7
F0.0
sg8
F372205.0
sg9
F0.0
sg10
F0.0
sg11
F372205.0
sg12
F0.0
sg13
F0.0
sg14
F0.0
sg15
I00
sg16
F0.0
sg17
F153686.0
sg18
F0.0
ssI16
(dp34
g2
F44.04972543535708
sg3
F1758.0
sg4
F1490344.0
sg5
F13.651877133105803
sg6
F1200000.0
sg7
F13.959955506117907
sg8
F698242.0
sg9
F16514.0
sg10
F27.500000000000004
sg11
F0.0
sg12
F40.0
sg13
F101740.0
sg14
F11.0
sg15
I01
sg16
F1132.0
sg17
F698242.0
sg18
F240.0
ssI17
(dp35
g2
F38.418287821909296
sg3
F136.0
sg4
F3202070.0
sg5
F8.823529411764707
sg6
F1100000.0
sg7
F7.894736842105263
sg8
F1416848.0
sg9
F0.0
sg10
F0.0
sg11
F1056320.0
sg12
F16.0
sg13
F947.0
sg14
F0.0
sg15
I00
sg16
F114.0
sg17
F360528.0
sg18
F12.0
ssI18
(dp36
g2
F44.05216804546918
sg3
F258.0
sg4
F551174.0
sg5
F9.689922480620156
sg6
F250000.0
sg7
F14.012738853503185
sg8
F725735.0
sg9
F10181.0
sg10
F33.92857142857143
sg11
F185063.0
sg12
F56.0
sg13
F2435.0
sg14
F19.0
sg15
I00
sg16
F117.0
sg17
F540672.0
sg18
F25.0
ssI19
(dp37
g2
F9.731358686608543
sg3
F0.0
sg4
F762135.0
sg5
F0.0
sg6
F0.0
sg7
F0.0
sg8
F384930.0
sg9
F51870.0
sg10
F0.0
sg11
F0.0
sg12
F0.0
sg13
F401130.0
sg14
F0.0
sg15
I00
sg16
F0.0
sg17
F384930.0
sg18
F0.0
ssI20
(dp38
g2
F0.0
sg3
F0.0
sg4
F87410.0
sg5
F0.0
sg6
F0.0
sg7
F0.0
sg8
F1030329.0
sg9
F33785.0
sg10
F0.0
sg11
F1030329.0
sg12
F0.0
sg13
F0.0
sg14
F0.0
sg15
I00
sg16
F0.0
sg17
F0.0
sg18
F0.0
ssI21
(dp39
g2
F54.51463047125582
sg3
F671.0
sg4
F1798780.0
sg5
F2.533532041728763
sg6
F850000.0
sg7
F2.08078335373317
sg8
F5898997.0
sg9
F50936.0
sg10
F0.0
sg11
F4346544.0
sg12
F146.0
sg13
F2.0
sg14
F0.0
sg15
I00
sg16
F215.0
sg17
F1552453.0
sg18
F17.0
ssI22
(dp40
g2
F41.439185878049635
sg3
F8305.0
sg4
F3471141.0
sg5
F3.0222757375075253
sg6
F3100000.0
sg7
F4.435363301106349
sg8
F547143.0
sg9
F5774.0
sg10
F11.226851851851851
sg11
F81042.0
sg12
F1728.0
sg13
F93925.0
sg14
F194.0
sg15
I00
sg16
F3669.0
sg17
F466101.0
sg18
F251.0
ssI23
(dp41
g2
F0.0
sg3
F0.0
sg4
F0.0
sg5
F0.0
sg6
F0.0
sg7
F0.0
sg8
F0.0
sg9
F0.0
sg10
F0.0
sg11
F0.0
sg12
F0.0
sg13
F0.0
sg14
F0.0
sg15
I00
sg16
F0.0
sg17
F32460.0
sg18
F0.0
ssI24
(dp42
g2
F0.0
sg3
F0.0
sg4
F102500.0
sg5
F0.0
sg6
F0.0
sg7
F0.0
sg8
F-44093.0
sg9
F0.0
sg10
F0.0
sg11
F3285.0
sg12
F0.0
sg13
F0.0
sg14
F0.0
sg15
I00
sg16
F0.0
sg17
F0.0
sg18
F0.0
ssI25
(dp43
g2
F46.426385074430904
sg3
F3221.0
sg4
F3038702.0
sg5
F2.9183483390251475
sg6
F2000000.0
sg7
F2.9989833954591663
sg8
F2072035.0
sg9
F178979.0
sg10
F3.0958597538232002
sg11
F1441898.0
sg12
F2681.0
sg13
F1191.0
sg14
F83.0
sg15
I00
sg16
F1730.0
sg17
F630137.0
sg18
F94.0
ssI26
(dp44
g2
F0.0
sg3
F0.0
sg4
F189583.0
sg5
F0.0
sg6
F0.0
sg7
F0.0
sg8
F0.0
sg9
F0.0
sg10
F0.0
sg11
F0.0
sg12
F0.0
sg13
F189583.0
sg14
F0.0
sg15
I00
sg16
F0.0
sg17
F0.0
sg18
F0.0
ssI27
(dp45
g2
F28.68876109288483
sg3
F383.0
sg4
F618850.0
sg5
F1.0443864229765014
sg6
F250000.0
sg7
F0.904977375565611
sg8
F659249.0
sg9
F59175.0
sg10
F0.0
sg11
F0.0
sg12
F59.0
sg13
F427316.0
sg14
F0.0
sg15
I00
sg16
F233.0
sg17
F659249.0
sg18
F4.0
ssI28
(dp46
g2
F0.0
sg3
F0.0
sg4
F228656.0
sg5
F0.0
sg6
F0.0
sg7
F0.0
sg8
F0.0
sg9
F228656.0
sg10
F0.0
sg11
F0.0
sg12
F0.0
sg13
F0.0
sg14
F0.0
sg15
I00
sg16
F0.0
sg17
F0.0
sg18
F0.0
ssI29
(dp47
g2
F32.612661574842335
sg3
F1607.0
sg4
F2047593.0
sg5
F1.4312383322962041
sg6
F1000000.0
sg7
F1.8822100789313905
sg8
F1843816.0
sg9
F38559.0
sg10
F20.0
sg11
F1465734.0
sg12
F40.0
sg13
F425688.0
sg14
F8.0
sg15
I00
sg16
F1336.0
sg17
F378082.0
sg18
F23.0
ssI30
(dp48
g2
F38.04380515909788
sg3
F1328.0
sg4
F1099100.0
sg5
F2.635542168674699
sg6
F700000.0
sg7
F5.886524822695035
sg8
F1918887.0
sg9
F33271.0
sg10
F58.536585365853654
sg11
F1635238.0
sg12
F82.0
sg13
F1950.0
sg14
F48.0
sg15
I01
sg16
F1258.0
sg17
F283649.0
sg18
F35.0
ssI31
(dp49
g2
F0.0
sg3
F0.0
sg4
F0.0
sg5
F0.0
sg6
F0.0
sg7
F0.0
sg8
F98718.0
sg9
F0.0
sg10
F0.0
sg11
F98718.0
sg12
F0.0
sg13
F0.0
sg14
F0.0
sg15
I00
sg16
F0.0
sg17
F0.0
sg18
F0.0
ssI32
(dp50
g2
F35.31556232701359
sg3
F7315.0
sg4
F969068.0
sg5
F1.9685577580314422
sg6
F700000.0
sg7
F4.546234345513811
sg8
F126027.0
sg9
F37172.0
sg10
F8.887865530739122
sg11
F0.0
sg12
F4343.0
sg13
F566.0
sg14
F386.0
sg15
I00
sg16
F2639.0
sg17
F126027.0
sg18
F144.0
ssI33
(dp51
g2
F0.0
sg3
F573.0
sg4
F475.0
sg5
F0.6980802792321117
sg6
F0.0
sg7
F1.8581081081081081
sg8
F2217299.0
sg9
F475.0
sg10
F36.84210526315789
sg11
F0.0
sg12
F19.0
sg13
F0.0
sg14
F7.0
sg15
I00
sg16
F471.0
sg17
F2217299.0
sg18
F4.0
ssI34
(dp52
g2
F27.822092492485154
sg3
F0.0
sg4
F2692324.0
sg5
F0.0
sg6
F200000.0
sg7
F0.0
sg8
F1008941.0
sg9
F21530.0
sg10
F0.0
sg11
F601438.0
sg12
F0.0
sg13
F53775.0
sg14
F0.0
sg15
I00
sg16
F0.0
sg17
F407503.0
sg18
F0.0
ssI35
(dp53
g2
F0.0
sg3
F0.0
sg4
F148.0
sg5
F0.0
sg6
F0.0
sg7
F0.0
sg8
F0.0
sg9
F148.0
sg10
F0.0
sg11
F0.0
sg12
F0.0
sg13
F0.0
sg14
F0.0
sg15
I00
sg16
F0.0
sg17
F0.0
sg18
F0.0
ssI36
(dp54
g2
F32.33221940134679
sg3
F1320.0
sg4
F2081796.0
sg5
F3.0303030303030303
sg6
F1700000.0
sg7
F3.0438010393466963
sg8
F441096.0
sg9
F98849.0
sg10
F3.7037037037037033
sg11
F0.0
sg12
F27.0
sg13
F1936.0
sg14
F1.0
sg15
I00
sg16
F900.0
sg17
F441096.0
sg18
F40.0
ssI37
(dp55
g2
F0.0
sg3
F0.0
sg4
F0.0
sg5
F0.0
sg6
F0.0
sg7
F0.0
sg8
F189518.0
sg9
F0.0
sg10
F0.0
sg11
F0.0
sg12
F0.0
sg13
F0.0
sg14
F0.0
sg15
I00
sg16
F0.0
sg17
F662086.0
sg18
F0.0
ssI38
(dp56
g2
F0.0
sg3
F952.0
sg4
F0.0
sg5
F1.050420168067227
sg6
F0.0
sg7
F1.0224948875255624
sg8
F850477.0
sg9
F0.0
sg10
F0.0
sg11
F850477.0
sg12
F26.0
sg13
F0.0
sg14
F0.0
sg15
I00
sg16
F739.0
sg17
F0.0
sg18
F10.0
ssI39
(dp57
g2
F0.0
sg3
F504.0
sg4
F7961.0
sg5
F3.1746031746031744
sg6
F0.0
sg7
F3.10077519379845
sg8
F151418.0
sg9
F0.0
sg10
F0.0
sg11
F0.0
sg12
F12.0
sg13
F0.0
sg14
F0.0
sg15
I00
sg16
F50.0
sg17
F151418.0
sg18
F16.0
ssI40
(dp58
g2
F0.0
sg3
F1433.0
sg4
F0.0
sg5
F1.7445917655268668
sg6
F0.0
sg7
F1.6383495145631068
sg8
F758931.0
sg9
F0.0
sg10
F0.9302325581395349
sg11
F664375.0
sg12
F215.0
sg13
F0.0
sg14
F2.0
sg15
I00
sg16
F508.0
sg17
F94556.0
sg18
F25.0
ssI41
(dp59
g2
F34.24310382466944
sg3
F0.0
sg4
F2652612.0
sg5
F0.0
sg6
F800000.0
sg7
F0.0
sg8
F985032.0
sg9
F118134.0
sg10
F0.0
sg11
F0.0
sg12
F0.0
sg13
F907502.0
sg14
F0.0
sg15
I01
sg16
F0.0
sg17
F985032.0
sg18
F0.0
ssI42
(dp60
g2
F41.79092173419211
sg3
F2822.0
sg4
F2664228.0
sg5
F2.374202693125443
sg6
F1000000.0
sg7
F2.8076256499133447
sg8
F360528.0
sg9
F0.0
sg10
F22.22222222222222
sg11
F0.0
sg12
F63.0
sg13
F3083.0
sg14
F14.0
sg15
I00
sg16
F2672.0
sg17
F360528.0
sg18
F67.0
ssI43
(dp61
g2
F33.06408645618492
sg3
F0.0
sg4
F228474.0
sg5
F0.0
sg6
F0.0
sg7
F0.0
sg8
F2493616.0
sg9
F11892.0
sg10
F0.0
sg11
F1624396.0
sg12
F0.0
sg13
F0.0
sg14
F0.0
sg15
I00
sg16
F0.0
sg17
F869220.0
sg18
F0.0
ssI44
(dp62
g2
F32.135589287322695
sg3
F0.0
sg4
F1204583.0
sg5
F0.0
sg6
F425000.0
sg7
F0.0
sg8
F2027865.0
sg9
F52255.0
sg10
F0.0
sg11
F2027865.0
sg12
F0.0
sg13
F1105.0
sg14
F0.0
sg15
I00
sg16
F0.0
sg17
F315068.0
sg18
F0.0
ssI45
(dp63
g2
F0.0
sg3
F0.0
sg4
F213071.0
sg5
F0.0
sg6
F0.0
sg7
F0.0
sg8
F0.0
sg9
F103773.0
sg10
F0.0
sg11
F0.0
sg12
F0.0
sg13
F0.0
sg14
F0.0
sg15
I00
sg16
F0.0
sg17
F0.0
sg18
F0.0
ssI46
(dp64
g2
F0.0
sg3
F653.0
sg4
F0.0
sg5
F0.0
sg6
F0.0
sg7
F0.0
sg8
F0.0
sg9
F0.0
sg10
F0.0
sg11
F0.0
sg12
F26.0
sg13
F0.0
sg14
F0.0
sg15
I00
sg16
F12.0
sg17
F0.0
sg18
F0.0
ssI47
(dp65
g2
F41.65871546187467
sg3
F0.0
sg4
F2146973.0
sg5
F0.0
sg6
F750000.0
sg7
F0.0
sg8
F877611.0
sg9
F0.0
sg10
F0.0
sg11
F436515.0
sg12
F0.0
sg13
F819288.0
sg14
F0.0
sg15
I00
sg16
F0.0
sg17
F441096.0
sg18
F0.0
ssI48
(dp66
g2
F0.07282031396699727
sg3
F566.0
sg4
F916197.0
sg5
F6.890459363957597
sg6
F0.0
sg7
F6.5546218487394965
sg8
F5243487.0
sg9
F56301.0
sg10
F0.0
sg11
F4046157.0
sg12
F29.0
sg13
F864523.0
sg14
F0.0
sg15
I00
sg16
F465.0
sg17
F1757552.0
sg18
F39.0
ssI49
(dp67
g2
F0.0
sg3
F0.0
sg4
F77492.0
sg5
F0.0
sg6
F0.0
sg7
F0.0
sg8
F371750.0
sg9
F0.0
sg10
F0.0
sg11
F371750.0
sg12
F0.0
sg13
F0.0
sg14
F0.0
sg15
I00
sg16
F0.0
sg17
F0.0
sg18
F0.0
ssI50
(dp68
g2
F41.077984907722765
sg3
F15149.0
sg4
F1057548.0
sg5
F0.48848108786058486
sg6
F650000.0
sg7
F0.849425568320704
sg8
F987001.0
sg9
F137767.0
sg10
F5.349794238683128
sg11
F607837.0
sg12
F1215.0
sg13
F705.0
sg14
F65.0
sg15
I00
sg16
F4527.0
sg17
F379164.0
sg18
F74.0
ssI51
(dp69
g2
F65.45889774165428
sg3
F3187.0
sg4
F4335388.0
sg5
F0.8785691873235018
sg6
F1500000.0
sg7
F1.555352241537054
sg8
F3128982.0
sg9
F0.0
sg10
F25.0
sg11
F1835558.0
sg12
F92.0
sg13
F1852186.0
sg14
F23.0
sg15
I00
sg16
F2103.0
sg17
F1293424.0
sg18
F28.0
ssI52
(dp70
g2
F32.34076853673914
sg3
F225.0
sg4
F2003885.0
sg5
F5.777777777777778
sg6
F200000.0
sg7
F10.227272727272728
sg8
F2493616.0
sg9
F22884.0
sg10
F35.8974358974359
sg11
F1624396.0
sg12
F39.0
sg13
F1573324.0
sg14
F14.0
sg15
I01
sg16
F91.0
sg17
F869220.0
sg18
F13.0
ssI53
(dp71
g2
F0.0
sg3
F0.0
sg4
F87492.0
sg5
F0.0
sg6
F0.0
sg7
F0.0
sg8
F412878.0
sg9
F0.0
sg10
F0.0
sg11
F412878.0
sg12
F0.0
sg13
F0.0
sg14
F0.0
sg15
I00
sg16
F0.0
sg17
F0.0
sg18
F0.0
ssI54
(dp72
g2
F31.467077432267182
sg3
F714.0
sg4
F1208649.0
sg5
F16.106442577030812
sg6
F600000.0
sg7
F15.101522842639595
sg8
F159211.0
sg9
F41626.0
sg10
F5.405405405405405
sg11
F17378.0
sg12
F74.0
sg13
F25553.0
sg14
F4.0
sg15
I00
sg16
F552.0
sg17
F141833.0
sg18
F115.0
ssI55
(dp73
g2
F26.60094009956689
sg3
F0.0
sg4
F704896.0
sg5
F0.0
sg6
F0.0
sg7
F0.0
sg8
F1034346.0
sg9
F116335.0
sg10
F0.0
sg11
F0.0
sg12
F0.0
sg13
F465357.0
sg14
F0.0
sg15
I00
sg16
F0.0
sg17
F1034346.0
sg18
F0.0
ssI56
(dp74
g2
F77.91376670325492
sg3
F6019.0
sg4
F4677574.0
sg5
F3.090214321315833
sg6
F3000000.0
sg7
F3.193916349809886
sg8
F6079137.0
sg9
F57838.0
sg10
F4.316546762589928
sg11
F3282960.0
sg12
F556.0
sg13
F301026.0
sg14
F24.0
sg15
I00
sg16
F3920.0
sg17
F2796177.0
sg18
F186.0
ssI57
(dp75
g2
F55.72784438130975
sg3
F3329.0
sg4
F2101364.0
sg5
F2.763592670471613
sg6
F1100000.0
sg7
F4.710920770877944
sg8
F3101279.0
sg9
F81364.0
sg10
F7.075127644055435
sg11
F1623010.0
sg12
F2742.0
sg13
F540.0
sg14
F194.0
sg15
I00
sg16
F2189.0
sg17
F1478269.0
sg18
F92.0
ssI58
(dp76
g2
F0.0
sg3
F58.0
sg4
F0.0
sg5
F0.0
sg6
F0.0
sg7
F1.3513513513513513
sg8
F47304.0
sg9
F0.0
sg10
F6.25
sg11
F0.0
sg12
F16.0
sg13
F0.0
sg14
F1.0
sg15
I00
sg16
F3.0
sg17
F47304.0
sg18
F0.0
ssI59
(dp77
g2
F55.74692727281054
sg3
F3093.0
sg4
F4747979.0
sg5
F2.133850630455868
sg6
F3000000.0
sg7
F10.954235637779941
sg8
F3614261.0
sg9
F86174.0
sg10
F19.843597262952102
sg11
F2291113.0
sg12
F3069.0
sg13
F1661.0
sg14
F609.0
sg15
I01
sg16
F2097.0
sg17
F1323148.0
sg18
F66.0
ssI60
(dp78
g2
F24.850351964850837
sg3
F0.0
sg4
F999356.0
sg5
F0.0
sg6
F100000.0
sg7
F0.0
sg8
F1362375.0
sg9
F0.0
sg10
F0.0
sg11
F1362375.0
sg12
F0.0
sg13
F162.0
sg14
F0.0
sg15
I00
sg16
F0.0
sg17
F0.0
sg18
F0.0
ssI61
(dp79
g2
F0.0
sg3
F0.0
sg4
F0.0
sg5
F0.0
sg6
F0.0
sg7
F0.0
sg8
F139130.0
sg9
F0.0
sg10
F0.0
sg11
F139130.0
sg12
F0.0
sg13
F0.0
sg14
F0.0
sg15
I00
sg16
F0.0
sg17
F0.0
sg18
F0.0
ssI62
(dp80
g2
F36.0982662048098
sg3
F0.0
sg4
F875889.0
sg5
F0.0
sg6
F200000.0
sg7
F0.0
sg8
F3064208.0
sg9
F57727.0
sg10
F0.0
sg11
F2549361.0
sg12
F0.0
sg13
F2630.0
sg14
F0.0
sg15
I00
sg16
F0.0
sg17
F514847.0
sg18
F0.0
ssI63
(dp81
g2
F0.0
sg3
F0.0
sg4
F2151.0
sg5
F0.0
sg6
F0.0
sg7
F0.0
sg8
F0.0
sg9
F2151.0
sg10
F0.0
sg11
F0.0
sg12
F0.0
sg13
F0.0
sg14
F0.0
sg15
I00
sg16
F0.0
sg17
F0.0
sg18
F0.0
ssI64
(dp82
g2
F39.92385162975526
sg3
F0.0
sg4
F1271582.0
sg5
F0.0
sg6
F750000.0
sg7
F0.0
sg8
F417619.0
sg9
F9410.0
sg10
F0.0
sg11
F0.0
sg12
F0.0
sg13
F150656.0
sg14
F0.0
sg15
I00
sg16
F0.0
sg17
F417619.0
sg18
F0.0
ssI65
(dp83
g2
F50.2380781543638
sg3
F1184.0
sg4
F1321557.0
sg5
F1.6891891891891893
sg6
F750000.0
sg7
F2.8317152103559873
sg8
F2606763.0
sg9
F63791.0
sg10
F28.846153846153843
sg11
F1637034.0
sg12
F52.0
sg13
F972.0
sg14
F15.0
sg15
I00
sg16
F856.0
sg17
F969729.0
sg18
F20.0
ssI66
(dp84
g2
F0.0
sg3
F894.0
sg4
F0.0
sg5
F6.0402684563758395
sg6
F0.0
sg7
F6.063947078280044
sg8
F1691366.0
sg9
F0.0
sg10
F7.6923076923076925
sg11
F757301.0
sg12
F13.0
sg13
F0.0
sg14
F1.0
sg15
I00
sg16
F720.0
sg17
F934065.0
sg18
F54.0
ssI67
(dp85
g2
F28.22726044482983
sg3
F0.0
sg4
F807956.0
sg5
F0.0
sg6
F325000.0
sg7
F0.0
sg8
F207940.0
sg9
F22344.0
sg10
F0.0
sg11
F0.0
sg12
F0.0
sg13
F713.0
sg14
F0.0
sg15
I00
sg16
F0.0
sg17
F207940.0
sg18
F0.0
ssI68
(dp86
g2
F29.3125426502625
sg3
F0.0
sg4
F900585.0
sg5
F0.0
sg6
F509870.0
sg7
F0.0
sg8
F318607.0
sg9
F50080.0
sg10
F0.0
sg11
F83237.0
sg12
F0.0
sg13
F76547.0
sg14
F0.0
sg15
I00
sg16
F0.0
sg17
F235370.0
sg18
F0.0
ssI69
(dp87
g2
F40.21345359117118
sg3
F1744.0
sg4
F1318763.0
sg5
F2.981651376146789
sg6
F900000.0
sg7
F2.9001673173452316
sg8
F947861.0
sg9
F228763.0
sg10
F0.0
sg11
F506765.0
sg12
F49.0
sg13
F51587.0
sg14
F0.0
sg15
I00
sg16
F1469.0
sg17
F441096.0
sg18
F52.0
ssI70
(dp88
g2
F40.09895624216647
sg3
F0.0
sg4
F1297461.0
sg5
F0.0
sg6
F700000.0
sg7
F0.0
sg8
F668132.0
sg9
F48357.0
sg10
F0.0
sg11
F187500.0
sg12
F0.0
sg13
F416441.0
sg14
F0.0
sg15
I00
sg16
F0.0
sg17
F480632.0
sg18
F0.0
ssI71
(dp89
g2
F0.0
sg3
F0.0
sg4
F0.0
sg5
F0.0
sg6
F0.0
sg7
F0.0
sg8
F759557.0
sg9
F0.0
sg10
F0.0
sg11
F759557.0
sg12
F0.0
sg13
F0.0
sg14
F0.0
sg15
I00
sg16
F0.0
sg17
F0.0
sg18
F0.0
ssI72
(dp90
g2
F0.0
sg3
F0.0
sg4
F0.0
sg5
F0.0
sg6
F0.0
sg7
F0.0
sg8
F1945360.0
sg9
F0.0
sg10
F0.0
sg11
F1753766.0
sg12
F0.0
sg13
F0.0
sg14
F0.0
sg15
I00
sg16
F0.0
sg17
F264013.0
sg18
F0.0
ssI73
(dp91
g2
F57.11509426185085
sg3
F4009.0
sg4
F3859065.0
sg5
F4.489897730107259
sg6
F1150000.0
sg7
F4.050420168067228
sg8
F803094.0
sg9
F76169.0
sg10
F3.1427099433281813
sg11
F608750.0
sg12
F1941.0
sg13
F52382.0
sg14
F61.0
sg15
I00
sg16
F1847.0
sg17
F524169.0
sg18
F180.0
ssI74
(dp92
g2
F42.53210124008262
sg3
F1858.0
sg4
F2669589.0
sg5
F7.534983853606028
sg6
F1350000.0
sg7
F8.222811671087534
sg8
F252055.0
sg9
F65907.0
sg10
F55.55555555555556
sg11
F0.0
sg12
F27.0
sg13
F1621.0
sg14
F15.0
sg15
I01
sg16
F1593.0
sg17
F252055.0
sg18
F140.0
ssI75
(dp93
g2
F0.0
sg3
F0.0
sg4
F0.0
sg5
F0.0
sg6
F0.0
sg7
F0.0
sg8
F85641.0
sg9
F0.0
sg10
F0.0
sg11
F9803.0
sg12
F0.0
sg13
F0.0
sg14
F0.0
sg15
I00
sg16
F0.0
sg17
F75838.0
sg18
F0.0
ssI76
(dp94
g2
F30.403931380975422
sg3
F936.0
sg4
F1414857.0
sg5
F0.10683760683760685
sg6
F350000.0
sg7
F0.9453781512605042
sg8
F1621236.0
sg9
F23870.0
sg10
F50.0
sg11
F664461.0
sg12
F16.0
sg13
F285414.0
sg14
F8.0
sg15
I00
sg16
F723.0
sg17
F956775.0
sg18
F1.0
ssI77
(dp95
g2
F0.0
sg3
F672.0
sg4
F0.0
sg5
F0.0
sg6
F0.0
sg7
F0.0
sg8
F221141.0
sg9
F0.0
sg10
F0.0
sg11
F59539.0
sg12
F19.0
sg13
F0.0
sg14
F0.0
sg15
I00
sg16
F127.0
sg17
F161602.0
sg18
F0.0
ssI78
(dp96
g2
F14.783897703488504
sg3
F1671.0
sg4
F111529.0
sg5
F12.208258527827647
sg6
F0.0
sg7
F13.372093023255813
sg8
F7890324.0
sg9
F14689.0
sg10
F22.171945701357465
sg11
F7509039.0
sg12
F221.0
sg13
F0.0
sg14
F49.0
sg15
I00
sg16
F1063.0
sg17
F381285.0
sg18
F204.0
ssI79
(dp97
g2
F12.337929002483827
sg3
F0.0
sg4
F860136.0
sg5
F0.0
sg6
F0.0
sg7
F0.0
sg8
F1599641.0
sg9
F0.0
sg10
F0.0
sg11
F1599641.0
sg12
F0.0
sg13
F874.0
sg14
F0.0
sg15
I00
sg16
F0.0
sg17
F0.0
sg18
F0.0
ssI80
(dp98
g2
F32.66975758621268
sg3
F7991.0
sg4
F5501630.0
sg5
F2.85320986109373
sg6
F5249999.0
sg7
F3.9646017699115044
sg8
F1110705.0
sg9
F17355.0
sg10
F22.31404958677686
sg11
F953136.0
sg12
F484.0
sg13
F210698.0
sg14
F108.0
sg15
I01
sg16
F5521.0
sg17
F157569.0
sg18
F228.0
ssI81
(dp99
g2
F32.16490060866791
sg3
F904.0
sg4
F2093263.0
sg5
F11.725663716814159
sg6
F750000.0
sg7
F11.899563318777293
sg8
F1640910.0
sg9
F25785.0
sg10
F25.0
sg11
F1451869.0
sg12
F12.0
sg13
F1568.0
sg14
F3.0
sg15
I00
sg16
F599.0
sg17
F189041.0
sg18
F106.0
ssI82
(dp100
g2
F33.90541297667154
sg3
F266.0
sg4
F911453.0
sg5
F0.0
sg6
F0.0
sg7
F0.0
sg8
F4817796.0
sg9
F46145.0
sg10
F0.0
sg11
F4452476.0
sg12
F41.0
sg13
F426629.0
sg14
F0.0
sg15
I00
sg16
F73.0
sg17
F365320.0
sg18
F0.0
ssI83
(dp101
g2
F67.27833694890516
sg3
F0.0
sg4
F2424083.0
sg5
F0.0
sg6
F1300000.0
sg7
F0.0
sg8
F1794412.0
sg9
F55921.0
sg10
F0.0
sg11
F0.0
sg12
F0.0
sg13
F277464.0
sg14
F0.0
sg15
I01
sg16
F0.0
sg17
F1794412.0
sg18
F0.0
ssI84
(dp102
g2
F0.0
sg3
F57.0
sg4
F181755.0
sg5
F0.0
sg6
F0.0
sg7
F0.0
sg8
F343434.0
sg9
F0.0
sg10
F0.0
sg11
F343434.0
sg12
F13.0
sg13
F0.0
sg14
F0.0
sg15
I00
sg16
F2.0
sg17
F0.0
sg18
F0.0
ssI85
(dp103
g2
F36.668005013457254
sg3
F2598.0
sg4
F1639297.0
sg5
F7.659738260200154
sg6
F1250000.0
sg7
F8.169219547775347
sg8
F126027.0
sg9
F35818.0
sg10
F17.36111111111111
sg11
F0.0
sg12
F144.0
sg13
F486.0
sg14
F25.0
sg15
I01
sg16
F2188.0
sg17
F126027.0
sg18
F199.0
ssI86
(dp104
g2
F64.2156091945951
sg3
F905.0
sg4
F505050.0
sg5
F4.640883977900553
sg6
F1750000.0
sg7
F4.9837486457204765
sg8
F22542539.0
sg9
F46950.0
sg10
F22.22222222222222
sg11
F19794175.0
sg12
F18.0
sg13
F174839.0
sg14
F4.0
sg15
I01
sg16
F864.0
sg17
F2748364.0
sg18
F42.0
ssI87
(dp105
g2
F41.997780278060624
sg3
F4607.0
sg4
F1086821.0
sg5
F0.8899500759713479
sg6
F400000.0
sg7
F1.1172595520421607
sg8
F976037.0
sg9
F83585.0
sg10
F1.1901447661469933
sg11
F850010.0
sg12
F14368.0
sg13
F4669.0
sg14
F171.0
sg15
I00
sg16
F583.0
sg17
F126027.0
sg18
F41.0
ssI88
(dp106
g2
F0.0
sg3
F0.0
sg4
F0.0
sg5
F0.0
sg6
F0.0
sg7
F0.0
sg8
F0.0
sg9
F0.0
sg10
F0.0
sg11
F0.0
sg12
F0.0
sg13
F0.0
sg14
F0.0
sg15
I00
sg16
F0.0
sg17
F0.0
sg18
F0.0
ssI89
(dp107
g2
F47.98019043199086
sg3
F102.0
sg4
F1101393.0
sg5
F0.0
sg6
F800000.0
sg7
F2.9629629629629632
sg8
F495633.0
sg9
F27861.0
sg10
F12.121212121212121
sg11
F117551.0
sg12
F33.0
sg13
F494.0
sg14
F4.0
sg15
I00
sg16
F71.0
sg17
F378082.0
sg18
F0.0
ssI90
(dp108
g2
F14.493990415808572
sg3
F0.0
sg4
F249787.0
sg5
F0.0
sg6
F0.0
sg7
F0.0
sg8
F7307594.0
sg9
F18834.0
sg10
F0.0
sg11
F5266578.0
sg12
F0.0
sg13
F176.0
sg14
F0.0
sg15
I00
sg16
F0.0
sg17
F2041016.0
sg18
F0.0
ssI91
(dp109
g2
F0.0
sg3
F0.0
sg4
F27942.0
sg5
F0.0
sg6
F0.0
sg7
F0.0
sg8
F0.0
sg9
F27942.0
sg10
F0.0
sg11
F0.0
sg12
F0.0
sg13
F0.0
sg14
F0.0
sg15
I00
sg16
F0.0
sg17
F0.0
sg18
F0.0
ssI92
(dp110
g2
F36.56312544176893
sg3
F0.0
sg4
F1112087.0
sg5
F0.0
sg6
F500000.0
sg7
F0.0
sg8
F511734.0
sg9
F16514.0
sg10
F0.0
sg11
F0.0
sg12
F0.0
sg13
F356071.0
sg14
F0.0
sg15
I00
sg16
F0.0
sg17
F511734.0
sg18
F0.0
ssI93
(dp111
g2
F0.0
sg3
F0.0
sg4
F1279.0
sg5
F0.0
sg6
F0.0
sg7
F0.0
sg8
F0.0
sg9
F1279.0
sg10
F0.0
sg11
F0.0
sg12
F0.0
sg13
F0.0
sg14
F0.0
sg15
I00
sg16
F0.0
sg17
F0.0
sg18
F0.0
ssI94
(dp112
g2
F0.0
sg3
F613.0
sg4
F0.0
sg5
F6.36215334420881
sg6
F0.0
sg7
F8.934169278996865
sg8
F1832468.0
sg9
F0.0
sg10
F72.0
sg11
F1426469.0
sg12
F25.0
sg13
F0.0
sg14
F18.0
sg15
I00
sg16
F583.0
sg17
F405999.0
sg18
F39.0
ssI95
(dp113
g2
F0.0
sg3
F0.0
sg4
F564348.0
sg5
F0.0
sg6
F0.0
sg7
F0.0
sg8
F1095040.0
sg9
F0.0
sg10
F0.0
sg11
F886231.0
sg12
F0.0
sg13
F0.0
sg14
F0.0
sg15
I00
sg16
F0.0
sg17
F208809.0
sg18
F0.0
ssI96
(dp114
g2
F1.009866618221566
sg3
F0.0
sg4
F1146658.0
sg5
F0.0
sg6
F0.0
sg7
F0.0
sg8
F0.0
sg9
F0.0
sg10
F0.0
sg11
F0.0
sg12
F0.0
sg13
F680833.0
sg14
F0.0
sg15
I00
sg16
F0.0
sg17
F0.0
sg18
F0.0
ssI97
(dp115
g2
F99.99999999999999
sg3
F898.0
sg4
F1386690.0
sg5
F0.779510022271715
sg6
F300000.0
sg7
F0.7253886010362695
sg8
F28798.0
sg9
F31653.0
sg10
F0.0
sg11
F28798.0
sg12
F67.0
sg13
F0.0
sg14
F0.0
sg15
I00
sg16
F728.0
sg17
F0.0
sg18
F7.0
ssI98
(dp116
g2
F0.0
sg3
F0.0
sg4
F362096.0
sg5
F0.0
sg6
F0.0
sg7
F0.0
sg8
F0.0
sg9
F0.0
sg10
F0.0
sg11
F0.0
sg12
F0.0
sg13
F362096.0
sg14
F0.0
sg15
I00
sg16
F0.0
sg17
F0.0
sg18
F0.0
ssI99
(dp117
g2
F0.0
sg3
F0.0
sg4
F774401.0
sg5
F0.0
sg6
F0.0
sg7
F0.0
sg8
F368705.0
sg9
F0.0
sg10
F0.0
sg11
F0.0
sg12
F0.0
sg13
F0.0
sg14
F0.0
sg15
I00
sg16
F0.0
sg17
F463261.0
sg18
F0.0
ssI100
(dp118
g2
F61.7275054691567
sg3
F12754.0
sg4
F1747522.0
sg5
F1.0976948408342482
sg6
F1000000.0
sg7
F2.700763593501768
sg8
F6153642.0
sg9
F41953.0
sg10
F5.725699067909454
sg11
F2022048.0
sg12
F6759.0
sg13
F1231.0
sg14
F387.0
sg15
I00
sg16
F3639.0
sg17
F4131594.0
sg18
F140.0
ssI101
(dp119
g2
F0.0
sg3
F517.0
sg4
F0.0
sg5
F0.0
sg6
F0.0
sg7
F0.0
sg8
F1884748.0
sg9
F0.0
sg10
F0.0
sg11
F1324578.0
sg12
F36.0
sg13
F0.0
sg14
F0.0
sg15
I00
sg16
F10.0
sg17
F560170.0
sg18
F0.0
ssI102
(dp120
g2
F39.69180366910571
sg3
F400.0
sg4
F1034395.0
sg5
F5.5
sg6
F325000.0
sg7
F6.744186046511628
sg8
F2056427.0
sg9
F0.0
sg10
F23.333333333333332
sg11
F1668260.0
sg12
F30.0
sg13
F1425.0
sg14
F7.0
sg15
I00
sg16
F337.0
sg17
F388167.0
sg18
F22.0
ssI103
(dp121
g2
F0.0
sg3
F0.0
sg4
F0.0
sg5
F0.0
sg6
F0.0
sg7
F0.0
sg8
F6077885.0
sg9
F0.0
sg10
F0.0
sg11
F5127155.0
sg12
F0.0
sg13
F0.0
sg14
F0.0
sg15
I00
sg16
F0.0
sg17
F950730.0
sg18
F0.0
ssI104
(dp122
g2
F30.831082824329005
sg3
F2902.0
sg4
F4484442.0
sg5
F1.6195727084769125
sg6
F4175000.0
sg7
F2.1973710025505198
sg8
F1729541.0
sg9
F13868.0
sg10
F2.9612756264236904
sg11
F1729541.0
sg12
F2195.0
sg13
F152.0
sg14
F65.0
sg15
I00
sg16
F1407.0
sg17
F126027.0
sg18
F47.0
ssI105
(dp123
g2
F37.88274555483125
sg3
F3136.0
sg4
F1576511.0
sg5
F0.7653061224489796
sg6
F600000.0
sg7
F0.9168704156479218
sg8
F494136.0
sg9
F116337.0
sg10
F4.411764705882353
sg11
F281073.0
sg12
F136.0
sg13
F2401.0
sg14
F6.0
sg15
I00
sg16
F2477.0
sg17
F213063.0
sg18
F24.0
ssI106
(dp124
g2
F0.0
sg3
F0.0
sg4
F83750.0
sg5
F0.0
sg6
F0.0
sg7
F0.0
sg8
F431750.0
sg9
F0.0
sg10
F0.0
sg11
F431750.0
sg12
F0.0
sg13
F0.0
sg14
F0.0
sg15
I00
sg16
F0.0
sg17
F44093.0
sg18
F0.0
ssI107
(dp125
g2
F0.0
sg3
F0.0
sg4
F84992.0
sg5
F0.0
sg6
F0.0
sg7
F0.0
sg8
F0.0
sg9
F1413.0
sg10
F0.0
sg11
F0.0
sg12
F0.0
sg13
F0.0
sg14
F0.0
sg15
I00
sg16
F0.0
sg17
F0.0
sg18
F0.0
ssI108
(dp126
g2
F0.0
sg3
F1486.0
sg4
F49288.0
sg5
F0.8748317631224763
sg6
F0.0
sg7
F0.9168303863785201
sg8
F0.0
sg9
F49288.0
sg10
F2.4390243902439024
sg11
F0.0
sg12
F41.0
sg13
F0.0
sg14
F1.0
sg15
I00
sg16
F761.0
sg17
F0.0
sg18
F13.0
ssI109
(dp127
g2
F0.0
sg3
F0.0
sg4
F182466.0
sg5
F0.0
sg6
F0.0
sg7
F0.0
sg8
F257817.0
sg9
F3486.0
sg10
F0.0
sg11
F257817.0
sg12
F0.0
sg13
F0.0
sg14
F0.0
sg15
I00
sg16
F0.0
sg17
F0.0
sg18
F0.0
ssI110
(dp128
g2
F0.0
sg3
F719.0
sg4
F0.0
sg5
F4.867872044506258
sg6
F0.0
sg7
F5.3120849933598935
sg8
F1118394.0
sg9
F0.0
sg10
F14.705882352941178
sg11
F754966.0
sg12
F34.0
sg13
F0.0
sg14
F5.0
sg15
I00
sg16
F589.0
sg17
F363428.0
sg18
F35.0
ssI111
(dp129
g2
F11.66331062214806
sg3
F0.0
sg4
F394475.0
sg5
F0.0
sg6
F100000.0
sg7
F0.0
sg8
F4221891.0
sg9
F8409.0
sg10
F0.0
sg11
F4160672.0
sg12
F0.0
sg13
F202052.0
sg14
F0.0
sg15
I00
sg16
F0.0
sg17
F201483.0
sg18
F0.0
ssI112
(dp130
g2
F40.11803913366725
sg3
F0.0
sg4
F2368151.0
sg5
F0.0
sg6
F1000000.0
sg7
F0.0
sg8
F8317782.0
sg9
F35812.0
sg10
F0.0
sg11
F8191755.0
sg12
F0.0
sg13
F374689.0
sg14
F0.0
sg15
I00
sg16
F0.0
sg17
F126027.0
sg18
F0.0
ssI113
(dp131
g2
F0.0
sg3
F523.0
sg4
F15456290.0
sg5
F0.0
sg6
F0.0
sg7
F0.18115942028985507
sg8
F0.0
sg9
F0.0
sg10
F3.4482758620689653
sg11
F2604490.0
sg12
F29.0
sg13
F137864.0
sg14
F1.0
sg15
I00
sg16
F463.0
sg17
F-2604490.0
sg18
F0.0
ssI114
(dp132
g2
F39.96858192743311
sg3
F312.0
sg4
F477557.0
sg5
F9.294871794871796
sg6
F300000.0
sg7
F11.009174311926607
sg8
F0.0
sg9
F0.0
sg10
F46.666666666666664
sg11
F0.0
sg12
F15.0
sg13
F540.0
sg14
F7.0
sg15
I00
sg16
F196.0
sg17
F307301.0
sg18
F29.0
ssI115
(dp133
g2
F37.86305201080244
sg3
F1088.0
sg4
F1054637.0
sg5
F0.0
sg6
F500000.0
sg7
F0.0
sg8
F1014505.0
sg9
F600.0
sg10
F0.0
sg11
F825464.0
sg12
F125.0
sg13
F1215.0
sg14
F0.0
sg15
I00
sg16
F23.0
sg17
F189041.0
sg18
F0.0
ssI116
(dp134
g2
F0.0
sg3
F0.0
sg4
F55097.0
sg5
F0.0
sg6
F0.0
sg7
F0.0
sg8
F192758.0
sg9
F55097.0
sg10
F0.0
sg11
F192758.0
sg12
F0.0
sg13
F0.0
sg14
F0.0
sg15
I00
sg16
F0.0
sg17
F0.0
sg18
F0.0
ssI117
(dp135
g2
F35.00321355892873
sg3
F2192.0
sg4
F812194.0
sg5
F0.5018248175182481
sg6
F400000.0
sg7
F0.581135449262405
sg8
F597461.0
sg9
F57580.0
sg10
F4.444444444444445
sg11
F400478.0
sg12
F45.0
sg13
F330.0
sg14
F2.0
sg15
I00
sg16
F395.0
sg17
F196983.0
sg18
F11.0
ssI118
(dp136
g2
F35.40960281632945
sg3
F209.0
sg4
F1566469.0
sg5
F4.784688995215311
sg6
F850000.0
sg7
F14.624505928853754
sg8
F896153.0
sg9
F48405.0
sg10
F61.36363636363637
sg11
F636246.0
sg12
F44.0
sg13
F60814.0
sg14
F27.0
sg15
I00
sg16
F178.0
sg17
F259907.0
sg18
F10.0
ssI119
(dp137
g2
F33.739010162784695
sg3
F176.0
sg4
F319941.0
sg5
F5.681818181818182
sg6
F70000.0
sg7
F6.842105263157896
sg8
F0.0
sg9
F28164.0
sg10
F21.428571428571427
sg11
F0.0
sg12
F14.0
sg13
F774.0
sg14
F3.0
sg15
I00
sg16
F114.0
sg17
F0.0
sg18
F10.0
ssI120
(dp138
g2
F24.182298099191343
sg3
F0.0
sg4
F360300.0
sg5
F0.0
sg6
F0.0
sg7
F0.0
sg8
F11884758.0
sg9
F53947.0
sg10
F0.0
sg11
F8308552.0
sg12
F0.0
sg13
F147950.0
sg14
F0.0
sg15
I01
sg16
F0.0
sg17
F3576206.0
sg18
F0.0
ssI121
(dp139
g2
F0.0
sg3
F0.0
sg4
F91093.0
sg5
F0.0
sg6
F0.0
sg7
F0.0
sg8
F30766064.0
sg9
F77978.0
sg10
F0.0
sg11
F30766064.0
sg12
F0.0
sg13
F2856.0
sg14
F0.0
sg15
I01
sg16
F0.0
sg17
F0.0
sg18
F0.0
ssI122
(dp140
g2
F38.18104931477153
sg3
F2572.0
sg4
F1410464.0
sg5
F11.858475894245723
sg6
F600000.0
sg7
F12.106261859582542
sg8
F1865087.0
sg9
F3475.0
sg10
F22.22222222222222
sg11
F1550019.0
sg12
F63.0
sg13
F473.0
sg14
F14.0
sg15
I00
sg16
F1902.0
sg17
F315068.0
sg18
F305.0
ssI123
(dp141
g2
F75.1675096215939
sg3
F2181.0
sg4
F550981.0
sg5
F2.9344337459880787
sg6
F800000.0
sg7
F2.7184466019417477
sg8
F8831913.0
sg9
F51124.0
sg10
F2.2002200220022003
sg11
F8831913.0
sg12
F909.0
sg13
F7482.0
sg14
F20.0
sg15
I00
sg16
F1401.0
sg17
F1787380.0
sg18
F64.0
ssI124
(dp142
g2
F36.588925511077996
sg3
F0.0
sg4
F827696.0
sg5
F0.0
sg6
F400000.0
sg7
F0.0
sg8
F63014.0
sg9
F129142.0
sg10
F0.0
sg11
F0.0
sg12
F0.0
sg13
F69.0
sg14
F0.0
sg15
I00
sg16
F0.0
sg17
F145796.0
sg18
F0.0
ssI125
(dp143
g2
F0.0
sg3
F2649.0
sg4
F0.0
sg5
F1.3212533031332578
sg6
F0.0
sg7
F1.9676549865229112
sg8
F346663.0
sg9
F0.0
sg10
F3.581526861451461
sg11
F0.0
sg12
F1061.0
sg13
F0.0
sg14
F38.0
sg15
I00
sg16
F571.0
sg17
F346663.0
sg18
F35.0
ssI126
(dp144
g2
F0.0
sg3
F0.0
sg4
F50591.0
sg5
F0.0
sg6
F0.0
sg7
F0.0
sg8
F176378.0
sg9
F0.0
sg10
F0.0
sg11
F176378.0
sg12
F0.0
sg13
F0.0
sg14
F0.0
sg15
I00
sg16
F0.0
sg17
F0.0
sg18
F0.0
ssI127
(dp145
g2
F46.49935805152991
sg3
F1755.0
sg4
F3676340.0
sg5
F2.3931623931623935
sg6
F2500000.0
sg7
F4.316939890710382
sg8
F2332399.0
sg9
F95924.0
sg10
F49.333333333333336
sg11
F940257.0
sg12
F75.0
sg13
F401481.0
sg14
F37.0
sg15
I00
sg16
F1604.0
sg17
F1392142.0
sg18
F42.0
ssI128
(dp146
g2
F47.31732711281958
sg3
F2374.0
sg4
F1587421.0
sg5
F2.232518955349621
sg6
F700000.0
sg7
F2.792607802874743
sg8
F1920055.0
sg9
F127017.0
sg10
F24.59016393442623
sg11
F671737.0
sg12
F61.0
sg13
F150458.0
sg14
F15.0
sg15
I01
sg16
F2271.0
sg17
F1248318.0
sg18
F53.0
ssI129
(dp147
g2
F0.0
sg3
F0.0
sg4
F3750.0
sg5
F0.0
sg6
F0.0
sg7
F0.0
sg8
F0.0
sg9
F0.0
sg10
F0.0
sg11
F0.0
sg12
F0.0
sg13
F0.0
sg14
F0.0
sg15
I00
sg16
F0.0
sg17
F0.0
sg18
F0.0
ssI130
(dp148
g2
F13.018195918703828
sg3
F496.0
sg4
F1979596.0
sg5
F5.64516129032258
sg6
F0.0
sg7
F6.407766990291262
sg8
F5819980.0
sg9
F28093.0
sg10
F26.31578947368421
sg11
F2165172.0
sg12
F19.0
sg13
F1553729.0
sg14
F5.0
sg15
I00
sg16
F437.0
sg17
F3654808.0
sg18
F28.0
ssI131
(dp149
g2
F37.759393744170175
sg3
F460.0
sg4
F399393.0
sg5
F2.1739130434782608
sg6
F300000.0
sg7
F4.3841336116910234
sg8
F1168042.0
sg9
F0.0
sg10
F57.89473684210527
sg11
F591250.0
sg12
F19.0
sg13
F152055.0
sg14
F11.0
sg15
I00
sg16
F379.0
sg17
F576792.0
sg18
F10.0
ssI132
(dp150
g2
F53.353780015480034
sg3
F1522.0
sg4
F8407016.0
sg5
F0.5256241787122208
sg6
F0.0
sg7
F0.45662100456621
sg8
F2070306.0
sg9
F8211.0
sg10
F0.0
sg11
F2070306.0
sg12
F230.0
sg13
F2818454.0
sg14
F0.0
sg15
I00
sg16
F477.0
sg17
F0.0
sg18
F8.0
ssI133
(dp151
g2
F50.46218763214902
sg3
F3523.0
sg4
F2355702.0
sg5
F4.428044280442804
sg6
F900000.0
sg7
F4.960664335664336
sg8
F3444470.0
sg9
F0.0
sg10
F6.7426400759734095
sg11
F2542813.0
sg12
F1053.0
sg13
F400572.0
sg14
F71.0
sg15
I00
sg16
F2333.0
sg17
F901657.0
sg18
F156.0
ssI134
(dp152
g2
F0.0
sg3
F0.0
sg4
F119292.0
sg5
F0.0
sg6
F0.0
sg7
F0.0
sg8
F0.0
sg9
F0.0
sg10
F0.0
sg11
F0.0
sg12
F0.0
sg13
F0.0
sg14
F0.0
sg15
I00
sg16
F0.0
sg17
F0.0
sg18
F0.0
ssI135
(dp153
g2
F63.384053114556885
sg3
F1892.0
sg4
F1868758.0
sg5
F3.06553911205074
sg6
F1000000.0
sg7
F3.6063884595569293
sg8
F2502063.0
sg9
F30674.0
sg10
F24.489795918367346
sg11
F0.0
sg12
F49.0
sg13
F307895.0
sg14
F12.0
sg15
I01
sg16
F1585.0
sg17
F2502063.0
sg18
F58.0
ssI136
(dp154
g2
F40.4883998919145
sg3
F533.0
sg4
F1092663.0
sg5
F0.0
sg6
F600000.0
sg7
F0.0
sg8
F3745048.0
sg9
F0.0
sg10
F0.0
sg11
F3181250.0
sg12
F29.0
sg13
F0.0
sg14
F0.0
sg15
I00
sg16
F300.0
sg17
F563798.0
sg18
F0.0
ssI137
(dp155
g2
F42.53210124008262
sg3
F865.0
sg4
F875760.0
sg5
F21.734104046242773
sg6
F800000.0
sg7
F22.435174746335964
sg8
F1080988.0
sg9
F96268.0
sg10
F50.0
sg11
F765920.0
sg12
F22.0
sg13
F891.0
sg14
F11.0
sg15
I00
sg16
F772.0
sg17
F315068.0
sg18
F188.0
ssI138
(dp156
g2
F41.97854472342783
sg3
F873.0
sg4
F1272284.0
sg5
F5.956471935853378
sg6
F600000.0
sg7
F6.524184476940382
sg8
F778546.0
sg9
F125978.0
sg10
F37.5
sg11
F384728.0
sg12
F16.0
sg13
F200308.0
sg14
F6.0
sg15
I01
sg16
F874.0
sg17
F393818.0
sg18
F52.0
ss.